target datalayout = "e-m:e-p270:32:32-p271:32:32-p272:64:64-i64:64-i128:128-f80:128-n8:16:32:64-S128"
target triple = "x86_64-pc-linux-gnu"

%struct.rb_data_type_struct = type { ptr, %struct.anon, ptr, ptr, i64 }
%struct.anon = type { ptr, ptr, ptr, ptr, [1 x ptr] }

@ossl_cipher_type = internal constant %struct.rb_data_type_struct { ptr @.str.30, %struct.anon { ptr null, ptr @ossl_cipher_free, ptr null, ptr null, [1 x ptr] zeroinitializer }, ptr null, ptr null, i64 33 }, align 8
@rb_eRuntimeError = external global i64, align 8
@.str = private unnamed_addr constant [24 x i8] c"Cipher not initialized!\00", align 1

; Function Attrs: inlinehint nounwind sspstrong willreturn memory(none) uwtable
define internal i64 @RB_INT2FIX(i64 noundef %0) #10 {
  %2 = alloca i64, align 8
  %3 = alloca i64, align 8
  %4 = alloca i64, align 8
  %5 = alloca i64, align 8
  %6 = alloca i64, align 8
  %7 = alloca i64, align 8
  store i64 %0, ptr %2, align 8, !tbaa !6
  call void @llvm.lifetime.start.p0(i64 8, ptr %3) #20
  %8 = load i64, ptr %2, align 8, !tbaa !6
  store i64 %8, ptr %3, align 8, !tbaa !6
  call void @llvm.lifetime.start.p0(i64 8, ptr %4) #20
  %9 = load i64, ptr %3, align 8, !tbaa !6
  %10 = shl i64 %9, 1
  %11 = add i64 %10, 1
  store i64 %11, ptr %4, align 8, !tbaa !6
  call void @llvm.lifetime.start.p0(i64 8, ptr %5) #20
  %12 = load i64, ptr %4, align 8, !tbaa !6
  store i64 %12, ptr %5, align 8, !tbaa !6
  call void @llvm.lifetime.start.p0(i64 8, ptr %6) #20
  %13 = load i64, ptr %5, align 8, !tbaa !6
  store i64 %13, ptr %6, align 8, !tbaa !6
  call void @llvm.lifetime.start.p0(i64 8, ptr %7) #20
  %14 = load i64, ptr %6, align 8, !tbaa !6
  store i64 %14, ptr %7, align 8, !tbaa !6
  %15 = load i64, ptr %7, align 8, !tbaa !6
  call void @llvm.lifetime.end.p0(i64 8, ptr %7) #20
  call void @llvm.lifetime.end.p0(i64 8, ptr %6) #20
  call void @llvm.lifetime.end.p0(i64 8, ptr %5) #20
  call void @llvm.lifetime.end.p0(i64 8, ptr %4) #20
  call void @llvm.lifetime.end.p0(i64 8, ptr %3) #20
  ret i64 %15
}

; Function Attrs: inlinehint nounwind sspstrong uwtable
define internal i64 @rb_int2num_inline(i32 noundef %0) #4 {
  %2 = alloca i64, align 8
  %3 = alloca i32, align 4
  store i32 %0, ptr %3, align 4, !tbaa !22
  %4 = load i32, ptr %3, align 4, !tbaa !22
  %5 = sext i32 %4 to i64
  %6 = icmp slt i64 %5, 4611686018427387904
  br i1 %6, label %7, label %15

7:                                                ; preds = %1
  %8 = load i32, ptr %3, align 4, !tbaa !22
  %9 = sext i32 %8 to i64
  %10 = icmp sge i64 %9, -4611686018427387904
  br i1 %10, label %11, label %15

11:                                               ; preds = %7
  %12 = load i32, ptr %3, align 4, !tbaa !22
  %13 = sext i32 %12 to i64
  %14 = call i64 @RB_INT2FIX(i64 noundef %13) #24
  store i64 %14, ptr %2, align 8
  br label %19

15:                                               ; preds = %7, %1
  %16 = load i32, ptr %3, align 4, !tbaa !22
  %17 = sext i32 %16 to i64
  %18 = call i64 @rb_int2big(i64 noundef %17)
  store i64 %18, ptr %2, align 8
  br label %19

19:                                               ; preds = %15, %11
  %20 = load i64, ptr %2, align 8
  ret i64 %20
}

; Function Attrs: nounwind sspstrong uwtable
define internal i64 @ossl_cipher_key_length(i64 noundef %0) #0 {
  %2 = alloca i64, align 8
  %3 = alloca ptr, align 8
  store i64 %0, ptr %2, align 8, !tbaa !6
  call void @llvm.lifetime.start.p0(i64 8, ptr %3) #20
  br label %4

4:                                                ; preds = %1
  br label %5

5:                                                ; preds = %4
  %6 = load i64, ptr %2, align 8, !tbaa !6
  %7 = call ptr @rb_check_typeddata(i64 noundef %6, ptr noundef @ossl_cipher_type)
  store ptr %7, ptr %3, align 8, !tbaa !10
  br label %8

8:                                                ; preds = %5
  br label %9

9:                                                ; preds = %8
  %10 = load ptr, ptr %3, align 8, !tbaa !10
  %11 = icmp ne ptr %10, null
  br i1 %11, label %14, label %12

12:                                               ; preds = %9
  %13 = load i64, ptr @rb_eRuntimeError, align 8, !tbaa !6
  call void (i64, ptr, ...) @ossl_raise(i64 noundef %13, ptr noundef @.str) #21
  unreachable

14:                                               ; preds = %9
  br label %15

15:                                               ; preds = %14
  br label %16

16:                                               ; preds = %15
  %17 = load ptr, ptr %3, align 8, !tbaa !10
  %18 = call i32 @EVP_CIPHER_CTX_get_key_length(ptr noundef %17)
  %19 = call i64 @rb_int2num_inline(i32 noundef %18)
  call void @llvm.lifetime.end.p0(i64 8, ptr %3) #20
  ret i64 %19
}